; Function Attrs: mustprogress ssp uwtable
define void @_ZNK6open3d4core7HashMap5CloneEv(ptr dead_on_unwind noalias writable sret(%"class.open3d::core::HashMap") align 8 %0, ptr noundef nonnull align 8 dereferenceable(152) %1) local_unnamed_addr #2 align 2 {
  %3 = alloca %"class.open3d::core::Device", align 8
  call void @llvm.lifetime.start.p0(i64 8, ptr nonnull %3) #30
  %4 = load ptr, ptr %1, align 8, !tbaa !4
  %5 = getelementptr inbounds nuw i8, ptr %4, i64 16
  %6 = load ptr, ptr %5, align 8
  %7 = tail call i64 %6(ptr noundef nonnull align 8 dereferenceable(152) %1)
  store i64 %7, ptr %3, align 8
  call void @_ZNK6open3d4core7HashMap2ToERKNS0_6DeviceEb(ptr dead_on_unwind writable sret(%"class.open3d::core::HashMap") align 8 %0, ptr noundef nonnull align 8 dereferenceable(152) %1, ptr noundef nonnull align 4 dereferenceable(8) %3, i1 noundef zeroext true)
  call void @llvm.lifetime.end.p0(i64 8, ptr nonnull %3) #30
  ret void
}